target datalayout = "e-m:e-p270:32:32-p271:32:32-p272:64:64-i64:64-i128:128-f80:128-n8:16:32:64-S128"
target triple = "x86_64-pc-linux-gnu"

%struct._zend_smm_shared_globals = type { ptr, i32, i64, i64, i8, %struct._zend_shared_memory_state, ptr, ptr, i64 }
%struct._zend_shared_memory_state = type { ptr, i64 }
%struct._zend_shared_segment = type { i64, i64, i64, ptr }

@smm_shared_globals = hidden global ptr null, align 8

; Function Attrs: nounwind uwtable
define hidden void @zend_shared_alloc_save_state() #0 {
  %1 = alloca i32, align 4
  store i32 0, ptr %1, align 4
  br label %2

2:                                                ; preds = %25, %0
  %3 = load i32, ptr %1, align 4
  %4 = load ptr, ptr @smm_shared_globals, align 8
  %5 = getelementptr inbounds %struct._zend_smm_shared_globals, ptr %4, i32 0, i32 1
  %6 = load i32, ptr %5, align 8
  %7 = icmp slt i32 %3, %6
  br i1 %7, label %8, label %28

8:                                                ; preds = %2
  %9 = load ptr, ptr @smm_shared_globals, align 8
  %10 = getelementptr inbounds %struct._zend_smm_shared_globals, ptr %9, i32 0, i32 0
  %11 = load ptr, ptr %10, align 8
  %12 = load i32, ptr %1, align 4
  %13 = sext i32 %12 to i64
  %14 = getelementptr inbounds ptr, ptr %11, i64 %13
  %15 = load ptr, ptr %14, align 8
  %16 = getelementptr inbounds %struct._zend_shared_segment, ptr %15, i32 0, i32 2
  %17 = load i64, ptr %16, align 8
  %18 = load ptr, ptr @smm_shared_globals, align 8
  %19 = getelementptr inbounds %struct._zend_smm_shared_globals, ptr %18, i32 0, i32 5
  %20 = getelementptr inbounds %struct._zend_shared_memory_state, ptr %19, i32 0, i32 0
  %21 = load ptr, ptr %20, align 8
  %22 = load i32, ptr %1, align 4
  %23 = sext i32 %22 to i64
  %24 = getelementptr inbounds i64, ptr %21, i64 %23
  store i64 %17, ptr %24, align 8
  br label %25

25:                                               ; preds = %8
  %26 = load i32, ptr %1, align 4
  %27 = add nsw i32 %26, 1
  store i32 %27, ptr %1, align 4
  br label %2

28:                                               ; preds = %2
  %29 = load ptr, ptr @smm_shared_globals, align 8
  %30 = getelementptr inbounds %struct._zend_smm_shared_globals, ptr %29, i32 0, i32 2
  %31 = load i64, ptr %30, align 8
  %32 = load ptr, ptr @smm_shared_globals, align 8
  %33 = getelementptr inbounds %struct._zend_smm_shared_globals, ptr %32, i32 0, i32 5
  %34 = getelementptr inbounds %struct._zend_shared_memory_state, ptr %33, i32 0, i32 1
  store i64 %31, ptr %34, align 8
  ret void
}