; Function Attrs: nofree norecurse nosync nounwind memory(readwrite, inaccessiblemem: none) uwtable
define hidden void @zend_shared_alloc_save_state() local_unnamed_addr #16 {
  %1 = load ptr, ptr @smm_shared_globals, align 8
  %2 = getelementptr inbounds i8, ptr %1, i64 8
  %3 = load i32, ptr %2, align 8
  %4 = icmp sgt i32 %3, 0
  br i1 %4, label %.lr.ph, label %._crit_edge

.lr.ph:                                           ; preds = %0, %.lr.ph
  %indvars.iv = phi i64 [ %indvars.iv.next, %.lr.ph ], [ 0, %0 ]
  %5 = phi ptr [ %14, %.lr.ph ], [ %1, %0 ]
  %6 = load ptr, ptr %5, align 8
  %7 = getelementptr inbounds ptr, ptr %6, i64 %indvars.iv
  %8 = load ptr, ptr %7, align 8
  %9 = getelementptr inbounds i8, ptr %8, i64 16
  %10 = load i64, ptr %9, align 8
  %11 = getelementptr inbounds i8, ptr %5, i64 40
  %12 = load ptr, ptr %11, align 8
  %13 = getelementptr inbounds i64, ptr %12, i64 %indvars.iv
  store i64 %10, ptr %13, align 8
  %indvars.iv.next = add nuw nsw i64 %indvars.iv, 1
  %14 = load ptr, ptr @smm_shared_globals, align 8
  %15 = getelementptr inbounds i8, ptr %14, i64 8
  %16 = load i32, ptr %15, align 8
  %17 = sext i32 %16 to i64
  %18 = icmp slt i64 %indvars.iv.next, %17
  br i1 %18, label %.lr.ph, label %._crit_edge

._crit_edge:                                      ; preds = %.lr.ph, %0
  %.lcssa = phi ptr [ %1, %0 ], [ %14, %.lr.ph ]
  %19 = getelementptr inbounds i8, ptr %.lcssa, i64 16
  %20 = load i64, ptr %19, align 8
  %21 = getelementptr inbounds i8, ptr %.lcssa, i64 48
  store i64 %20, ptr %21, align 8
  ret void
}